; Function Attrs: mustprogress uwtable
define noundef zeroext i1 @_ZNK7rocksdb9cassandra14ExpiringColumn7ExpiredEv(ptr noundef nonnull align 8 dereferenceable(44) %0) local_unnamed_addr #3 align 2 {
  %2 = load ptr, ptr %0, align 8, !tbaa !4
  %3 = getelementptr inbounds nuw i8, ptr %2, i64 16
  %4 = load ptr, ptr %3, align 8
  %5 = tail call noundef i64 %4(ptr noundef nonnull align 8 dereferenceable(44) %0)
  %6 = mul nsw i64 %5, 1000
  %7 = getelementptr inbounds nuw i8, ptr %0, i64 40
  %8 = load i32, ptr %7, align 8, !tbaa !57
  %9 = sext i32 %8 to i64
  %10 = mul nsw i64 %9, 1000000000
  %11 = add nsw i64 %10, %6
  %12 = tail call i64 @_ZNSt6chrono3_V212system_clock3nowEv() #26
  %13 = icmp slt i64 %11, %12
  ret i1 %13
}